target datalayout = "e-m:e-p270:32:32-p271:32:32-p272:64:64-i64:64-i128:128-f80:128-n8:16:32:64-S128"
target triple = "x86_64-pc-linux-gnu"

@.str.9 = private unnamed_addr constant [8 x i8] c"18devel\00", align 1
@.str.97 = private unnamed_addr constant [6 x i8] c"%s-%s\00", align 1
@.str.98 = private unnamed_addr constant [3 x i8] c"18\00", align 1

; Function Attrs: nounwind uwtable
define internal void @process_psqlrc_file(ptr noundef %0) #0 {
  %2 = alloca ptr, align 8
  %3 = alloca ptr, align 8
  %4 = alloca ptr, align 8
  store ptr %0, ptr %2, align 8
  call void @llvm.lifetime.start.p0(i64 8, ptr %3) #8
  call void @llvm.lifetime.start.p0(i64 8, ptr %4) #8
  %5 = load ptr, ptr %2, align 8
  %6 = call ptr (ptr, ...) @psprintf(ptr noundef @.str.97, ptr noundef %5, ptr noundef @.str.9)
  store ptr %6, ptr %3, align 8
  %7 = load ptr, ptr %2, align 8
  %8 = call ptr (ptr, ...) @psprintf(ptr noundef @.str.97, ptr noundef %7, ptr noundef @.str.98)
  store ptr %8, ptr %4, align 8
  %9 = load ptr, ptr %3, align 8
  %10 = call i32 @access(ptr noundef %9, i32 noundef 4) #8
  %11 = icmp eq i32 %10, 0
  br i1 %11, label %12, label %15

12:                                               ; preds = %1
  %13 = load ptr, ptr %3, align 8
  %14 = call i32 @process_file(ptr noundef %13, i1 noundef zeroext false)
  br label %31

15:                                               ; preds = %1
  %16 = load ptr, ptr %4, align 8
  %17 = call i32 @access(ptr noundef %16, i32 noundef 4) #8
  %18 = icmp eq i32 %17, 0
  br i1 %18, label %19, label %22

19:                                               ; preds = %15
  %20 = load ptr, ptr %4, align 8
  %21 = call i32 @process_file(ptr noundef %20, i1 noundef zeroext false)
  br label %30

22:                                               ; preds = %15
  %23 = load ptr, ptr %2, align 8
  %24 = call i32 @access(ptr noundef %23, i32 noundef 4) #8
  %25 = icmp eq i32 %24, 0
  br i1 %25, label %26, label %29

26:                                               ; preds = %22
  %27 = load ptr, ptr %2, align 8
  %28 = call i32 @process_file(ptr noundef %27, i1 noundef zeroext false)
  br label %29

29:                                               ; preds = %26, %22
  br label %30

30:                                               ; preds = %29, %19
  br label %31

31:                                               ; preds = %30, %12
  %32 = load ptr, ptr %3, align 8
  call void @free(ptr noundef %32) #8
  %33 = load ptr, ptr %4, align 8
  call void @free(ptr noundef %33) #8
  call void @llvm.lifetime.end.p0(i64 8, ptr %4) #8
  call void @llvm.lifetime.end.p0(i64 8, ptr %3) #8
  ret void
}