; Function Attrs: nounwind uwtable
define internal fastcc void @process_psqlrc_file(ptr noundef %0) unnamed_addr #0 {
  %2 = tail call ptr (ptr, ...) @psprintf(ptr noundef nonnull @.str.97, ptr noundef %0, ptr noundef nonnull @.str.9) #15
  %3 = tail call ptr (ptr, ...) @psprintf(ptr noundef nonnull @.str.97, ptr noundef %0, ptr noundef nonnull @.str.98) #15
  %4 = tail call i32 @access(ptr noundef %2, i32 noundef 4) #15
  %5 = icmp eq i32 %4, 0
  br i1 %5, label %.sink.split, label %6

6:                                                ; preds = %1
  %7 = tail call i32 @access(ptr noundef %3, i32 noundef 4) #15
  %8 = icmp eq i32 %7, 0
  br i1 %8, label %.sink.split, label %9

9:                                                ; preds = %6
  %10 = tail call i32 @access(ptr noundef %0, i32 noundef 4) #15
  %11 = icmp eq i32 %10, 0
  br i1 %11, label %.sink.split, label %13

.sink.split:                                      ; preds = %9, %6, %1
  %.sink = phi ptr [ %2, %1 ], [ %3, %6 ], [ %0, %9 ]
  %12 = tail call i32 @process_file(ptr noundef %.sink, i1 noundef zeroext false) #15
  br label %13

13:                                               ; preds = %.sink.split, %9
  tail call void @free(ptr noundef %2) #15
  tail call void @free(ptr noundef %3) #15
  ret void
}